Microchip MPLAB XC8 Compiler V2.32

Linker command line:

-W-3 --edf=C:\Program Files\Microchip\xc8\v2.32\pic\dat\en_msgs.txt -cn \
  -h+dist/default/production\RisoluzionePreTest.X.production.sym \
  --cmf=dist/default/production\RisoluzionePreTest.X.production.cmf -z \
  -Q16F877A -oC:\Users\FEDERI~1\AppData\Local\Temp\xcAskao.4 \
  --defsym=__MPLAB_BUILD=1 \
  -Mdist/default/production/RisoluzionePreTest.X.production.map -E1 \
  -ver=XC8 Compiler --acfsm=1493 -ASTACK=0110h-016Fh -pstack=STACK \
  -ACODE=00h-07FFhx4 -ASTRCODE=00h-01FFFh -ASTRING=00h-0FFhx32 \
  -ACONST=00h-0FFhx32 -AENTRY=00h-0FFhx32 -ACOMMON=070h-07Fh \
  -ABANK0=020h-06Fh -ABANK1=0A0h-0EFh -ABANK2=0110h-016Fh \
  -ABANK3=0190h-01EFh -ARAM=020h-06Fh,0A0h-0EFh,0110h-016Fh,0190h-01EFh \
  -AABS1=020h-07Fh,0A0h-0EFh,0110h-016Fh,0190h-01EFh -ASFR0=00h-01Fh \
  -ASFR1=080h-09Fh -ASFR2=0100h-010Fh -ASFR3=0180h-018Fh \
  -ACONFIG=02007h-02007h -DCONFIG=2 -AIDLOC=02000h-02003h -DIDLOC=2 \
  -AEEDATA=00h-0FFh/02100h -peeprom_data=EEDATA -DEEDATA=2 -DCODE=2 \
  -DSTRCODE=2 -DSTRING=2 -DCONST=2 -DENTRY=2 \
  -preset_vec=00h,intentry=04h,init,end_init -ppowerup=CODE -pcinit=CODE \
  -pfunctab=ENTRY -k C:\Users\FEDERI~1\AppData\Local\Temp\xcAskao.o \
  dist/default/production\RisoluzionePreTest.X.production.o 

Object code version is 3.11

Machine type is 16F877A



                Name                               Link     Load   Length Selector   Space Scale
C:\Users\FEDERI~1\AppData\Local\Temp\xcAskao.o
                end_init                              E        E        3        8       0
                reset_vec                             0        0        3        0       0
                config                             2007     2007        1        0       4
dist/default/production\RisoluzionePreTest.X.production.o
                cinit                                11       11        D        8       0
                intentry                              4        4        A        8       0
                config                             2007     2007        1        0       4
                text11                              1DF      1DF       45        8       0
                text10                              294      294       19        8       0
                text9                               2C4      2C4       15      588       0
                text8                               274      274       20        8       0
                text7                                87       87       68        8       0
                text6                               196      196       49        8       0
                text5                               2D9      2D9        B      588       0
                text4                               252      252       22        8       0
                text3                                1E       1E       69        8       0
                text2                                EF       EF       5B        8       0
                text1                               14A      14A       4C        8       0
                maintext                            224      224       2E        8       0
                cstackBANK0                          20       20       12       20       1
                cstackCOMMON                         70       70        A       70       1
                bssBANK0                             32       32        7       20       1
                strings                             2AD      2AD       17      55A       0

TOTAL           Name                               Link     Load   Length     Space
        CLASS   STACK          

        CLASS   CODE           
                end_init                              E        E        3         0
                cinit                                11       11        D         0
                intentry                              4        4        A         0
                reset_vec                             0        0        3         0
                text11                              1DF      1DF       45         0
                text10                              294      294       19         0
                text9                               2C4      2C4       15         0
                text8                               274      274       20         0
                text7                                87       87       68         0
                text6                               196      196       49         0
                text5                               2D9      2D9        B         0
                text4                               252      252       22         0
                text3                                1E       1E       69         0
                text2                                EF       EF       5B         0
                text1                               14A      14A       4C         0
                maintext                            224      224       2E         0

        CLASS   STRCODE        

        CLASS   STRING         
                strings                             2AD      2AD       17         0

        CLASS   CONST          

        CLASS   ENTRY          

        CLASS   COMMON         
                cstackCOMMON                         70       70        A         1

        CLASS   BANK0          
                cstackBANK0                          20       20       12         1
                bssBANK0                             32       32        7         1

        CLASS   BANK1          

        CLASS   BANK2          

        CLASS   BANK3          

        CLASS   RAM            

        CLASS   ABS1           
                abs_s1                               7E       7E        2         1

        CLASS   SFR0           

        CLASS   SFR1           

        CLASS   SFR2           

        CLASS   SFR3           

        CLASS   CONFIG         
                config                             2007     2007        1         4

        CLASS   IDLOC          

        CLASS   EEDATA         



SEGMENTS        Name                           Load    Length   Top    Selector   Space  Class     Delta

                reset_vec                      000000  000003  000003         0       0  CODE        2
                intentry                       000004  0002A9  0002AD         8       0  CODE        2
                cstackBANK0                    000020  000019  000039        20       1  BANK0       1
                cstackCOMMON                   000070  00000A  00007A        70       1  COMMON      1
                strings                        0002AD  000017  0002C4       55A       0  STRING      2
                text9                          0002C4  000020  0002E4       588       0  CODE        2


UNUSED ADDRESS RANGES

        Name                Unused          Largest block    Delta
        BANK0            0039-006F             37           1
        BANK1            00A0-00EF             50           1
        BANK2            0110-016F             60           1
        BANK3            0190-01EF             60           1
        CODE             0003-0003              1           2
                         02E4-1FFF            800
        COMMON           007A-007D              4           1
        CONST            0003-0003              1           2
                         02E4-1FFF            100
        EEDATA           2100-21FF            100           2
        ENTRY            0003-0003              1           2
                         02E4-1FFF            100
        IDLOC            2000-2003              4           2
        RAM              0039-006F             37           1
                         00A0-00EF             50
                         0110-016F             60
                         0190-01EF             60
        SFR0             0000-001F             20           1
        SFR1             0080-009F             20           1
        SFR2             0100-010F             10           1
        SFR3             0180-018F             10           1
        STACK            0110-016F             60           1
        STRCODE          0003-0003              1           2
                         02E4-1FFF           1D1C
        STRING           0003-0003              1           2
                         02E4-1FFF            100

                                  Symbol Table

?___awdiv                cstackCOMMON 0074
?___awmod                cstackCOMMON 0074
?___lldiv                cstackBANK0  0020
UART_init@baudRate       cstackBANK0  0028
_INTCON                  (abs)        000B
_ISR                     text11       01DF
_OPTION_REG              (abs)        0081
_PIE1                    (abs)        008C
_PORTAbits               (abs)        0005
_PORTB                   (abs)        0006
_PORTBbits               (abs)        0006
_PORTD                   (abs)        0008
_RCIF                    (abs)        0065
_RCREG                   (abs)        001A
_RCSTA                   (abs)        0018
_SPBRG                   (abs)        0099
_T0IF                    (abs)        005A
_TMR0                    (abs)        0001
_TRISA                   (abs)        0085
_TRISB                   (abs)        0086
_TRISC                   (abs)        0087
_TRISD                   (abs)        0088
_TRISE                   (abs)        0089
_TXSTA                   (abs)        0098
_UART_init               text6        0196
__Habs1                  abs1         0000
__Hbank0                 bank0        0000
__Hbank1                 bank1        0000
__Hbank2                 bank2        0000
__Hbank3                 bank3        0000
__HbssBANK0              bssBANK0     0000
__Hcinit                 cinit        001E
__Hclrtext               clrtext      0000
__Hcode                  code         0000
__Hcommon                common       0000
__Hconfig                config       2008
__HcstackBANK0           cstackBANK0  0000
__HcstackCOMMON          cstackCOMMON 0000
__Heeprom_data           eeprom_data  0000
__Hend_init              end_init     0011
__Hfunctab               functab      0000
__Hinit                  init         000E
__Hintentry              intentry     000E
__Hmaintext              maintext     0000
__Hpowerup               powerup      0000
__Hram                   ram          0000
__Hreset_vec             reset_vec    0003
__Hsfr0                  sfr0         0000
__Hsfr1                  sfr1         0000
__Hsfr2                  sfr2         0000
__Hsfr3                  sfr3         0000
__Hspace_0               (abs)        02E4
__Hspace_1               (abs)        007A
__Hspace_2               (abs)        0000
__Hspace_3               (abs)        0000
__Hspace_4               (abs)        400F
__Hstack                 stack        0000
__Hstrings               strings      0000
__Htext                  text         0000
__Labs1                  abs1         0000
__Lbank0                 bank0        0000
__Lbank1                 bank1        0000
__Lbank2                 bank2        0000
__Lbank3                 bank3        0000
__LbssBANK0              bssBANK0     0000
__Lcinit                 cinit        0011
__Lclrtext               clrtext      0000
__Lcode                  code         0000
__Lcommon                common       0000
__Lconfig                config       0000
__LcstackBANK0           cstackBANK0  0000
__LcstackCOMMON          cstackCOMMON 0000
__Leeprom_data           eeprom_data  0000
__Lend_init              end_init     000E
__Lfunctab               functab      0000
__Linit                  init         000E
__Lintentry              intentry     0004
__Lmaintext              maintext     0000
__Lpowerup               powerup      0000
__Lram                   ram          0000
__Lreset_vec             reset_vec    0000
__Lsfr0                  sfr0         0000
__Lsfr1                  sfr1         0000
__Lsfr2                  sfr2         0000
__Lsfr3                  sfr3         0000
__Lspace_0               (abs)        0000
__Lspace_1               (abs)        0000
__Lspace_2               (abs)        0000
__Lspace_3               (abs)        0000
__Lspace_4               (abs)        0000
__Lstack                 stack        0000
__Lstrings               strings      0000
__Ltext                  text         0000
__S0                     (abs)        02E4
__S1                     (abs)        007A
__S2                     (abs)        0000
__S3                     (abs)        0000
___awdiv                 text3        001E
___awdiv@counter         cstackBANK0  0020
___awdiv@dividend        cstackCOMMON 0076
___awdiv@divisor         cstackCOMMON 0074
___awdiv@quotient        cstackBANK0  0022
___awdiv@sign            cstackBANK0  0021
___awmod                 text2        00EF
___awmod@counter         cstackBANK0  0020
___awmod@dividend        cstackCOMMON 0076
___awmod@divisor         cstackCOMMON 0074
___awmod@sign            cstackBANK0  0021
___bmul                  text9        02C4
___bmul@multiplicand     cstackCOMMON 0074
___bmul@multiplier       cstackCOMMON 0077
___bmul@product          cstackCOMMON 0076
___int_sp                stack        0000
___latbits               (abs)        0002
___lldiv                 text7        0087
___lldiv@counter         cstackCOMMON 0079
___lldiv@dividend        cstackBANK0  0024
___lldiv@divisor         cstackBANK0  0020
___lldiv@quotient        cstackCOMMON 0075
___sp                    stack        0000
___stackhi               (abs)        0000
___stacklo               (abs)        0000
__end_of_ISR             text11       0224
__end_of_UART_init       text6        01DF
__end_of___awdiv         text3        0087
__end_of___awmod         text2        014A
__end_of___bmul          text9        02D9
__end_of___lldiv         text7        00EF
__end_of__initialization cinit        001A
__end_of__stringtab      strings      02B3
__end_of_clearBuffer     text10       02AD
__end_of_decode          text8        0294
__end_of_disp            strings      02C4
__end_of_initPic         text4        0274
__end_of_main            maintext     0252
__end_of_setTimer0       text5        02E4
__end_of_stampa          text1        0196
__initialization         cinit        0011
__pbssBANK0              bssBANK0     0032
__pcstackBANK0           cstackBANK0  0020
__pcstackCOMMON          cstackCOMMON 0070
__pintentry              intentry     0004
__pmaintext              maintext     0224
__pstrings               strings      02AD
__ptext1                 text1        014A
__ptext10                text10       0294
__ptext11                text11       01DF
__ptext2                 text2        00EF
__ptext3                 text3        001E
__ptext4                 text4        0252
__ptext5                 text5        02D9
__ptext6                 text6        0196
__ptext7                 text7        0087
__ptext8                 text8        0274
__ptext9                 text9        02C4
__size_of_ISR            (abs)        0000
__size_of_UART_init      (abs)        0000
__size_of___awdiv        (abs)        0000
__size_of___awmod        (abs)        0000
__size_of___bmul         (abs)        0000
__size_of___lldiv        (abs)        0000
__size_of_clearBuffer    (abs)        0000
__size_of_decode         (abs)        0000
__size_of_initPic        (abs)        0000
__size_of_main           (abs)        0000
__size_of_setTimer0      (abs)        0000
__size_of_stampa         (abs)        0000
__stringbase             strings      02B2
__stringtab              strings      02AD
_clearBuffer             text10       0294
_dataReceived            bssBANK0     0035
_decode                  text8        0274
_disp                    strings      02B3
_indexRC                 bssBANK0     0038
_initPic                 text4        0252
_isReceived              bssBANK0     0033
_main                    maintext     0224
_setTimer0               text5        02D9
_stampa                  text1        014A
_timeCount               bssBANK0     0034
_valore                  bssBANK0     0032
btemp                    (abs)        007E
clearBuffer@buf          cstackCOMMON 0077
clearBuffer@dim          cstackCOMMON 0074
clearBuffer@i            cstackCOMMON 0078
clearBuffer@index        cstackCOMMON 0075
end_of_initialization    cinit        001A
interrupt_function       intentry     0004
intlevel0                functab      0000
intlevel1                functab      0000
intlevel2                functab      0000
intlevel3                functab      0000
intlevel4                functab      0000
intlevel5                functab      0000
reset_vec                reset_vec    0000
saved_w                  (abs)        007E
stampa@cifra             cstackBANK0  0028
stampa@ledDaAccendere    cstackBANK0  0027
stampa@val               cstackBANK0  0029
start                    init         000E
start_initialization     cinit        0011
wtemp0                   (abs)        007E


MODULE INFORMATION

Module		Function		Class		Link	Load	Size
C:\Program Files\Microchip\xc8\v2.32\pic\sources\c90\common\Umul8.c
		___bmul        		CODE           	02C4	0000	21

C:\Program Files\Microchip\xc8\v2.32\pic\sources\c90\common\Umul8.c estimated size: 21

C:\Program Files\Microchip\xc8\v2.32\pic\sources\c90\common\awmod.c
		___awmod       		CODE           	00EF	0000	91

C:\Program Files\Microchip\xc8\v2.32\pic\sources\c90\common\awmod.c estimated size: 91

shared
		__stringtab    		STRING         	02AD	0000	6
		__initialization		CODE           	0011	0000	9
		_disp          		STRING         	02B3	0000	17

shared estimated size: 32

C:\Program Files\Microchip\xc8\v2.32\pic\sources\c90\common\awdiv.c
		___awdiv       		CODE           	001E	0000	105

C:\Program Files\Microchip\xc8\v2.32\pic\sources\c90\common\awdiv.c estimated size: 105

soluzioneMain.c
		_initPic       		CODE           	0252	0000	34
		_decode        		CODE           	0274	0000	32
		_ISR           		CODE           	01DF	0000	69
		_UART_init     		CODE           	0196	0000	73
		_main          		CODE           	0224	0000	46
		_setTimer0     		CODE           	02D9	0000	11
		_stampa        		CODE           	014A	0000	76
		_clearBuffer   		CODE           	0294	0000	25

soluzioneMain.c estimated size: 366

C:\Program Files\Microchip\xc8\v2.32\pic\sources\c90\common\__lldiv.c
		___lldiv       		CODE           	0087	0000	104

C:\Program Files\Microchip\xc8\v2.32\pic\sources\c90\common\__lldiv.c estimated size: 104

